target datalayout = "e-m:e-p270:32:32-p271:32:32-p272:64:64-i64:64-i128:128-f80:128-n8:16:32:64-S128"
target triple = "x86_64-pc-linux-gnu"

%"class.zxing::Ref" = type { ptr }
%"class.zxing::Ref.2" = type { ptr }
%"class.zxing::ArrayRef.3" = type { %"class.zxing::Counted.base", ptr }
%"class.zxing::Counted.base" = type <{ ptr, i32 }>
%"class.zxing::HybridBinarizer" = type <{ %"class.zxing::GlobalHistogramBinarizer.base", [7 x i8], %"class.zxing::Ref.2", %"class.zxing::ArrayRef.1", %"class.zxing::ArrayRef.3", %"class.zxing::ArrayRef.1", i32, i32, i32, i32, i32, [4 x i8] }>
%"class.zxing::GlobalHistogramBinarizer.base" = type <{ %"class.zxing::Binarizer", %"class.zxing::ArrayRef", %"class.zxing::ArrayRef.1", i8 }>
%"class.zxing::Binarizer" = type { %"class.zxing::Counted.base", %"class.zxing::Ref", i8, i8, i32, i32, i32, i32, %"class.zxing::Ref.0", %"class.zxing::Ref.0", %"class.zxing::Ref.0" }
%"class.zxing::Ref.0" = type { ptr }
%"class.zxing::ArrayRef" = type { %"class.zxing::Counted.base", ptr }
%"class.zxing::ArrayRef.1" = type { %"class.zxing::Counted.base", ptr }
%"struct.zxing::BINARIZER_BLOCK" = type { i32, i32, i32, i32 }
%"class.zxing::Counted" = type <{ ptr, i32, [4 x i8] }>
%"class.zxing::Array.25" = type { %"class.zxing::Counted.base", %"class.std::vector.26" }
%"class.std::vector.26" = type { %"struct.std::_Vector_base.27" }
%"struct.std::_Vector_base.27" = type { %"struct.std::_Vector_base<zxing::BINARIZER_BLOCK, std::allocator<zxing::BINARIZER_BLOCK>>::_Vector_impl" }
%"struct.std::_Vector_base<zxing::BINARIZER_BLOCK, std::allocator<zxing::BINARIZER_BLOCK>>::_Vector_impl" = type { %"struct.std::_Vector_base<zxing::BINARIZER_BLOCK, std::allocator<zxing::BINARIZER_BLOCK>>::_Vector_impl_data" }
%"struct.std::_Vector_base<zxing::BINARIZER_BLOCK, std::allocator<zxing::BINARIZER_BLOCK>>::_Vector_impl_data" = type { ptr, ptr, ptr }

@_ZTVN5zxing7CountedE = linkonce_odr hidden unnamed_addr constant { [4 x ptr] } { [4 x ptr] [ptr null, ptr @_ZTIN5zxing7CountedE, ptr @_ZN5zxing7CountedD2Ev, ptr @_ZN5zxing7CountedD0Ev] }, comdat, align 8
@_ZTVN5zxing8ArrayRefINS_15BINARIZER_BLOCKEEE = linkonce_odr hidden unnamed_addr constant { [4 x ptr] } { [4 x ptr] [ptr null, ptr @_ZTIN5zxing8ArrayRefINS_15BINARIZER_BLOCKEEE, ptr @_ZN5zxing8ArrayRefINS_15BINARIZER_BLOCKEED2Ev, ptr @_ZN5zxing8ArrayRefINS_15BINARIZER_BLOCKEED0Ev] }, comdat, align 8

; Function Attrs: mustprogress nounwind uwtable
define linkonce_odr hidden noundef nonnull align 4 dereferenceable(16) ptr @_ZNSt6vectorIN5zxing15BINARIZER_BLOCKESaIS1_EEixEm(ptr noundef nonnull align 8 dereferenceable(24) %0, i64 noundef %1) #2 comdat align 2 {
  %3 = alloca ptr, align 8
  %4 = alloca i64, align 8
  store ptr %0, ptr %3, align 8, !tbaa !154
  store i64 %1, ptr %4, align 8, !tbaa !123
  %5 = load ptr, ptr %3, align 8
  %6 = getelementptr inbounds nuw %"struct.std::_Vector_base.27", ptr %5, i32 0, i32 0
  %7 = getelementptr inbounds nuw %"struct.std::_Vector_base<zxing::BINARIZER_BLOCK, std::allocator<zxing::BINARIZER_BLOCK>>::_Vector_impl_data", ptr %6, i32 0, i32 0
  %8 = load ptr, ptr %7, align 8, !tbaa !156
  %9 = load i64, ptr %4, align 8, !tbaa !123
  %10 = getelementptr inbounds nuw %"struct.zxing::BINARIZER_BLOCK", ptr %8, i64 %9
  ret ptr %10
}

; Function Attrs: mustprogress nounwind uwtable
define linkonce_odr hidden noundef nonnull align 4 dereferenceable(16) ptr @_ZN5zxing5ArrayINS_15BINARIZER_BLOCKEEixEi(ptr noundef nonnull align 8 dereferenceable(40) %0, i32 noundef %1) #2 comdat align 2 {
  %3 = alloca ptr, align 8
  %4 = alloca i32, align 4
  store ptr %0, ptr %3, align 8, !tbaa !135
  store i32 %1, ptr %4, align 4, !tbaa !21
  %5 = load ptr, ptr %3, align 8
  %6 = getelementptr inbounds nuw %"class.zxing::Array.25", ptr %5, i32 0, i32 1
  %7 = load i32, ptr %4, align 4, !tbaa !21
  %8 = sext i32 %7 to i64
  %9 = call noundef nonnull align 4 dereferenceable(16) ptr @_ZNSt6vectorIN5zxing15BINARIZER_BLOCKESaIS1_EEixEm(ptr noundef nonnull align 8 dereferenceable(24) %6, i64 noundef %8) #12
  ret ptr %9
}

; Function Attrs: mustprogress nounwind uwtable
define linkonce_odr hidden noundef ptr @_ZN5zxing7Counted6retainEv(ptr noundef nonnull align 8 dereferenceable(12) %0) #2 comdat align 2 {
  %2 = alloca ptr, align 8
  store ptr %0, ptr %2, align 8, !tbaa !132
  %3 = load ptr, ptr %2, align 8
  %4 = getelementptr inbounds nuw %"class.zxing::Counted", ptr %3, i32 0, i32 1
  %5 = load i32, ptr %4, align 8, !tbaa !134
  %6 = add i32 %5, 1
  store i32 %6, ptr %4, align 8, !tbaa !134
  ret ptr %3
}

; Function Attrs: mustprogress nounwind uwtable
define linkonce_odr hidden void @_ZN5zxing7CountedD2Ev(ptr noundef nonnull align 8 dereferenceable(12) %0) unnamed_addr #2 comdat align 2 {
  %2 = alloca ptr, align 8
  store ptr %0, ptr %2, align 8, !tbaa !132
  ret void
}

; Function Attrs: mustprogress nounwind uwtable
define linkonce_odr hidden void @_ZN5zxing7Counted7releaseEv(ptr noundef nonnull align 8 dereferenceable(12) %0) #2 comdat align 2 {
  %2 = alloca ptr, align 8
  store ptr %0, ptr %2, align 8, !tbaa !132
  %3 = load ptr, ptr %2, align 8
  %4 = getelementptr inbounds nuw %"class.zxing::Counted", ptr %3, i32 0, i32 1
  %5 = load i32, ptr %4, align 8, !tbaa !134
  %6 = add i32 %5, -1
  store i32 %6, ptr %4, align 8, !tbaa !134
  %7 = getelementptr inbounds nuw %"class.zxing::Counted", ptr %3, i32 0, i32 1
  %8 = load i32, ptr %7, align 8, !tbaa !134
  %9 = icmp eq i32 %8, 0
  br i1 %9, label %10, label %18

10:                                               ; preds = %1
  %11 = getelementptr inbounds nuw %"class.zxing::Counted", ptr %3, i32 0, i32 1
  store i32 -559026175, ptr %11, align 8, !tbaa !134
  %12 = icmp eq ptr %3, null
  br i1 %12, label %17, label %13

13:                                               ; preds = %10
  %14 = load ptr, ptr %3, align 8, !tbaa !10
  %15 = getelementptr inbounds ptr, ptr %14, i64 1
  %16 = load ptr, ptr %15, align 8
  call void %16(ptr noundef nonnull align 8 dereferenceable(12) %3) #12
  br label %17

17:                                               ; preds = %13, %10
  br label %18

18:                                               ; preds = %17, %1
  ret void
}

; Function Attrs: mustprogress uwtable
define linkonce_odr hidden noundef nonnull align 4 dereferenceable(16) ptr @_ZN5zxing8ArrayRefINS_15BINARIZER_BLOCKEEixEi(ptr noundef nonnull align 8 dereferenceable(24) %0, i32 noundef %1) #0 comdat align 2 {
  %3 = alloca ptr, align 8
  %4 = alloca i32, align 4
  store ptr %0, ptr %3, align 8, !tbaa !43
  store i32 %1, ptr %4, align 4, !tbaa !21
  %5 = load ptr, ptr %3, align 8
  %6 = getelementptr inbounds nuw %"class.zxing::ArrayRef.3", ptr %5, i32 0, i32 1
  %7 = load ptr, ptr %6, align 8, !tbaa !45
  %8 = load i32, ptr %4, align 4, !tbaa !21
  %9 = call noundef nonnull align 4 dereferenceable(16) ptr @_ZN5zxing5ArrayINS_15BINARIZER_BLOCKEEixEi(ptr noundef nonnull align 8 dereferenceable(40) %7, i32 noundef %8)
  ret ptr %9
}

; Function Attrs: mustprogress nounwind uwtable
define linkonce_odr hidden void @_ZN5zxing8ArrayRefINS_15BINARIZER_BLOCKEE5resetEPNS_5ArrayIS1_EE(ptr noundef nonnull align 8 dereferenceable(24) %0, ptr noundef %1) #2 comdat align 2 {
  %3 = alloca ptr, align 8
  %4 = alloca ptr, align 8
  store ptr %0, ptr %3, align 8, !tbaa !43
  store ptr %1, ptr %4, align 8, !tbaa !135
  %5 = load ptr, ptr %3, align 8
  %6 = load ptr, ptr %4, align 8, !tbaa !135
  %7 = icmp ne ptr %6, null
  br i1 %7, label %8, label %11

8:                                                ; preds = %2
  %9 = load ptr, ptr %4, align 8, !tbaa !135
  %10 = call noundef ptr @_ZN5zxing7Counted6retainEv(ptr noundef nonnull align 8 dereferenceable(12) %9)
  br label %11

11:                                               ; preds = %8, %2
  %12 = getelementptr inbounds nuw %"class.zxing::ArrayRef.3", ptr %5, i32 0, i32 1
  %13 = load ptr, ptr %12, align 8, !tbaa !45
  %14 = icmp ne ptr %13, null
  br i1 %14, label %15, label %18

15:                                               ; preds = %11
  %16 = getelementptr inbounds nuw %"class.zxing::ArrayRef.3", ptr %5, i32 0, i32 1
  %17 = load ptr, ptr %16, align 8, !tbaa !45
  call void @_ZN5zxing7Counted7releaseEv(ptr noundef nonnull align 8 dereferenceable(12) %17)
  br label %18

18:                                               ; preds = %15, %11
  %19 = load ptr, ptr %4, align 8, !tbaa !135
  %20 = getelementptr inbounds nuw %"class.zxing::ArrayRef.3", ptr %5, i32 0, i32 1
  store ptr %19, ptr %20, align 8, !tbaa !45
  ret void
}

; Function Attrs: mustprogress nounwind uwtable
define linkonce_odr hidden void @_ZN5zxing7CountedC2Ev(ptr noundef nonnull align 8 dereferenceable(12) %0) unnamed_addr #2 comdat align 2 {
  %2 = alloca ptr, align 8
  store ptr %0, ptr %2, align 8, !tbaa !132
  %3 = load ptr, ptr %2, align 8
  store ptr getelementptr inbounds inrange(-16, 16) ({ [4 x ptr] }, ptr @_ZTVN5zxing7CountedE, i32 0, i32 0, i32 2), ptr %3, align 8, !tbaa !10
  %4 = getelementptr inbounds nuw %"class.zxing::Counted", ptr %3, i32 0, i32 1
  store i32 0, ptr %4, align 8, !tbaa !134
  ret void
}

; Function Attrs: mustprogress nounwind uwtable
define linkonce_odr hidden void @_ZN5zxing8ArrayRefINS_15BINARIZER_BLOCKEED2Ev(ptr noundef nonnull align 8 dereferenceable(24) %0) unnamed_addr #2 comdat align 2 {
  %2 = alloca ptr, align 8
  store ptr %0, ptr %2, align 8, !tbaa !43
  %3 = load ptr, ptr %2, align 8
  store ptr getelementptr inbounds inrange(-16, 16) ({ [4 x ptr] }, ptr @_ZTVN5zxing8ArrayRefINS_15BINARIZER_BLOCKEEE, i32 0, i32 0, i32 2), ptr %3, align 8, !tbaa !10
  %4 = getelementptr inbounds nuw %"class.zxing::ArrayRef.3", ptr %3, i32 0, i32 1
  %5 = load ptr, ptr %4, align 8, !tbaa !45
  %6 = icmp ne ptr %5, null
  br i1 %6, label %7, label %10

7:                                                ; preds = %1
  %8 = getelementptr inbounds nuw %"class.zxing::ArrayRef.3", ptr %3, i32 0, i32 1
  %9 = load ptr, ptr %8, align 8, !tbaa !45
  call void @_ZN5zxing7Counted7releaseEv(ptr noundef nonnull align 8 dereferenceable(12) %9)
  br label %10

10:                                               ; preds = %7, %1
  %11 = getelementptr inbounds nuw %"class.zxing::ArrayRef.3", ptr %3, i32 0, i32 1
  store ptr null, ptr %11, align 8, !tbaa !45
  call void @_ZN5zxing7CountedD2Ev(ptr noundef nonnull align 8 dereferenceable(12) %3) #12
  ret void
}

; Function Attrs: inlinehint mustprogress uwtable
define internal noundef i32 @_ZN12_GLOBAL__N_126getBlackPointFromNeighborsEN5zxing8ArrayRefINS0_15BINARIZER_BLOCKEEEiii(ptr noundef %0, i32 noundef %1, i32 noundef %2, i32 noundef %3) #8 {
  %5 = alloca ptr, align 8
  %6 = alloca i32, align 4
  %7 = alloca i32, align 4
  %8 = alloca i32, align 4
  store ptr %0, ptr %5, align 8, !tbaa !43
  store i32 %1, ptr %6, align 4, !tbaa !21
  store i32 %2, ptr %7, align 4, !tbaa !21
  store i32 %3, ptr %8, align 4, !tbaa !21
  %9 = load i32, ptr %8, align 4, !tbaa !21
  %10 = sub nsw i32 %9, 1
  %11 = load i32, ptr %6, align 4, !tbaa !21
  %12 = mul nsw i32 %10, %11
  %13 = load i32, ptr %7, align 4, !tbaa !21
  %14 = add nsw i32 %12, %13
  %15 = call noundef nonnull align 4 dereferenceable(16) ptr @_ZN5zxing8ArrayRefINS_15BINARIZER_BLOCKEEixEi(ptr noundef nonnull align 8 dereferenceable(24) %0, i32 noundef %14)
  %16 = getelementptr inbounds nuw %"struct.zxing::BINARIZER_BLOCK", ptr %15, i32 0, i32 3
  %17 = load i32, ptr %16, align 4, !tbaa !61
  %18 = load i32, ptr %8, align 4, !tbaa !21
  %19 = load i32, ptr %6, align 4, !tbaa !21
  %20 = mul nsw i32 %18, %19
  %21 = load i32, ptr %7, align 4, !tbaa !21
  %22 = add nsw i32 %20, %21
  %23 = sub nsw i32 %22, 1
  %24 = call noundef nonnull align 4 dereferenceable(16) ptr @_ZN5zxing8ArrayRefINS_15BINARIZER_BLOCKEEixEi(ptr noundef nonnull align 8 dereferenceable(24) %0, i32 noundef %23)
  %25 = getelementptr inbounds nuw %"struct.zxing::BINARIZER_BLOCK", ptr %24, i32 0, i32 3
  %26 = load i32, ptr %25, align 4, !tbaa !61
  %27 = mul nsw i32 2, %26
  %28 = add nsw i32 %17, %27
  %29 = load i32, ptr %8, align 4, !tbaa !21
  %30 = sub nsw i32 %29, 1
  %31 = load i32, ptr %6, align 4, !tbaa !21
  %32 = mul nsw i32 %30, %31
  %33 = load i32, ptr %7, align 4, !tbaa !21
  %34 = add nsw i32 %32, %33
  %35 = sub nsw i32 %34, 1
  %36 = call noundef nonnull align 4 dereferenceable(16) ptr @_ZN5zxing8ArrayRefINS_15BINARIZER_BLOCKEEixEi(ptr noundef nonnull align 8 dereferenceable(24) %0, i32 noundef %35)
  %37 = getelementptr inbounds nuw %"struct.zxing::BINARIZER_BLOCK", ptr %36, i32 0, i32 3
  %38 = load i32, ptr %37, align 4, !tbaa !61
  %39 = add nsw i32 %28, %38
  %40 = ashr i32 %39, 2
  ret i32 %40
}

; Function Attrs: mustprogress nounwind uwtable
define linkonce_odr hidden void @_ZN5zxing8ArrayRefINS_15BINARIZER_BLOCKEEC2ERKS2_(ptr noundef nonnull align 8 dereferenceable(24) %0, ptr noundef nonnull align 8 dereferenceable(24) %1) unnamed_addr #2 comdat align 2 {
  %3 = alloca ptr, align 8
  %4 = alloca ptr, align 8
  store ptr %0, ptr %3, align 8, !tbaa !43
  store ptr %1, ptr %4, align 8, !tbaa !43
  %5 = load ptr, ptr %3, align 8
  call void @_ZN5zxing7CountedC2Ev(ptr noundef nonnull align 8 dereferenceable(12) %5)
  store ptr getelementptr inbounds inrange(-16, 16) ({ [4 x ptr] }, ptr @_ZTVN5zxing8ArrayRefINS_15BINARIZER_BLOCKEEE, i32 0, i32 0, i32 2), ptr %5, align 8, !tbaa !10
  %6 = getelementptr inbounds nuw %"class.zxing::ArrayRef.3", ptr %5, i32 0, i32 1
  store ptr null, ptr %6, align 8, !tbaa !45
  %7 = load ptr, ptr %4, align 8, !tbaa !43
  %8 = getelementptr inbounds nuw %"class.zxing::ArrayRef.3", ptr %7, i32 0, i32 1
  %9 = load ptr, ptr %8, align 8, !tbaa !45
  call void @_ZN5zxing8ArrayRefINS_15BINARIZER_BLOCKEE5resetEPNS_5ArrayIS1_EE(ptr noundef nonnull align 8 dereferenceable(24) %5, ptr noundef %9)
  ret void
}

; Function Attrs: mustprogress uwtable
define hidden noundef i32 @_ZN5zxing15HybridBinarizer17getBlockThresholdEiiiiiiii(ptr noundef nonnull align 8 dereferenceable(228) %0, i32 noundef %1, i32 noundef %2, i32 noundef %3, i32 noundef %4, i32 noundef %5, i32 noundef %6, i32 noundef %7, i32 noundef %8) #0 align 2 personality ptr @__gxx_personality_v0 {
  %10 = alloca ptr, align 8
  %11 = alloca i32, align 4
  %12 = alloca i32, align 4
  %13 = alloca i32, align 4
  %14 = alloca i32, align 4
  %15 = alloca i32, align 4
  %16 = alloca i32, align 4
  %17 = alloca i32, align 4
  %18 = alloca i32, align 4
  %19 = alloca i32, align 4
  %20 = alloca i32, align 4
  %21 = alloca %"class.zxing::ArrayRef.3", align 8
  %22 = alloca ptr, align 8
  %23 = alloca i32, align 4
  store ptr %0, ptr %10, align 8, !tbaa !3
  store i32 %1, ptr %11, align 4, !tbaa !21
  store i32 %2, ptr %12, align 4, !tbaa !21
  store i32 %3, ptr %13, align 4, !tbaa !21
  store i32 %4, ptr %14, align 4, !tbaa !21
  store i32 %5, ptr %15, align 4, !tbaa !21
  store i32 %6, ptr %16, align 4, !tbaa !21
  store i32 %7, ptr %17, align 4, !tbaa !21
  store i32 %8, ptr %18, align 4, !tbaa !21
  %24 = load ptr, ptr %10, align 8
  call void @llvm.lifetime.start.p0(i64 4, ptr %19) #12
  %25 = load i32, ptr %14, align 4, !tbaa !21
  %26 = load i32, ptr %18, align 4, !tbaa !21
  %27 = mul nsw i32 %26, 2
  %28 = ashr i32 %25, %27
  store i32 %28, ptr %19, align 4, !tbaa !21
  %29 = load i32, ptr %16, align 4, !tbaa !21
  %30 = load i32, ptr %15, align 4, !tbaa !21
  %31 = sub nsw i32 %29, %30
  %32 = load i32, ptr %17, align 4, !tbaa !21
  %33 = icmp sle i32 %31, %32
  br i1 %33, label %34, label %60

34:                                               ; preds = %9
  %35 = load i32, ptr %15, align 4, !tbaa !21
  %36 = ashr i32 %35, 1
  store i32 %36, ptr %19, align 4, !tbaa !21
  %37 = load i32, ptr %12, align 4, !tbaa !21
  %38 = icmp sgt i32 %37, 0
  br i1 %38, label %39, label %59

39:                                               ; preds = %34
  %40 = load i32, ptr %11, align 4, !tbaa !21
  %41 = icmp sgt i32 %40, 0
  br i1 %41, label %42, label %59

42:                                               ; preds = %39
  call void @llvm.lifetime.start.p0(i64 4, ptr %20) #12
  %43 = getelementptr inbounds nuw %"class.zxing::HybridBinarizer", ptr %24, i32 0, i32 4
  call void @_ZN5zxing8ArrayRefINS_15BINARIZER_BLOCKEEC2ERKS2_(ptr noundef nonnull align 8 dereferenceable(24) %21, ptr noundef nonnull align 8 dereferenceable(24) %43)
  %44 = load i32, ptr %13, align 4, !tbaa !21
  %45 = load i32, ptr %11, align 4, !tbaa !21
  %46 = load i32, ptr %12, align 4, !tbaa !21
  %47 = invoke noundef i32 @_ZN12_GLOBAL__N_126getBlackPointFromNeighborsEN5zxing8ArrayRefINS0_15BINARIZER_BLOCKEEEiii(ptr noundef %21, i32 noundef %44, i32 noundef %45, i32 noundef %46)
          to label %48 unwind label %54

48:                                               ; preds = %42
  call void @_ZN5zxing8ArrayRefINS_15BINARIZER_BLOCKEED2Ev(ptr noundef nonnull align 8 dereferenceable(24) %21) #12
  store i32 %47, ptr %20, align 4, !tbaa !21
  %49 = load i32, ptr %15, align 4, !tbaa !21
  %50 = load i32, ptr %20, align 4, !tbaa !21
  %51 = icmp slt i32 %49, %50
  br i1 %51, label %52, label %58

52:                                               ; preds = %48
  %53 = load i32, ptr %20, align 4, !tbaa !21
  store i32 %53, ptr %19, align 4, !tbaa !21
  br label %58

54:                                               ; preds = %42
  %55 = landingpad { ptr, i32 }
          cleanup
  %56 = extractvalue { ptr, i32 } %55, 0
  store ptr %56, ptr %22, align 8
  %57 = extractvalue { ptr, i32 } %55, 1
  store i32 %57, ptr %23, align 4
  call void @_ZN5zxing8ArrayRefINS_15BINARIZER_BLOCKEED2Ev(ptr noundef nonnull align 8 dereferenceable(24) %21) #12
  call void @llvm.lifetime.end.p0(i64 4, ptr %20) #12
  call void @llvm.lifetime.end.p0(i64 4, ptr %19) #12
  br label %62

58:                                               ; preds = %52, %48
  call void @llvm.lifetime.end.p0(i64 4, ptr %20) #12
  br label %59

59:                                               ; preds = %58, %39, %34
  br label %60

60:                                               ; preds = %59, %9
  %61 = load i32, ptr %19, align 4, !tbaa !21
  call void @llvm.lifetime.end.p0(i64 4, ptr %19) #12
  ret i32 %61

62:                                               ; preds = %54
  %63 = load ptr, ptr %22, align 8
  %64 = load i32, ptr %23, align 4
  %65 = insertvalue { ptr, i32 } poison, ptr %63, 0
  %66 = insertvalue { ptr, i32 } %65, i32 %64, 1
  resume { ptr, i32 } %66
}