; Function Attrs: mustprogress uwtable
define hidden noundef i32 @_ZN5zxing15HybridBinarizer17getBlockThresholdEiiiiiiii(ptr noundef nonnull readonly align 8 captures(none) dereferenceable(228) %0, i32 noundef %1, i32 noundef %2, i32 noundef %3, i32 noundef %4, i32 noundef %5, i32 noundef %6, i32 noundef %7, i32 noundef %8) local_unnamed_addr #0 align 2 personality ptr @__gxx_personality_v0 {
  %10 = shl nsw i32 %8, 1
  %11 = ashr i32 %4, %10
  %12 = sub nsw i32 %6, %5
  %.not = icmp sgt i32 %12, %7
  br i1 %.not, label %53, label %13

13:                                               ; preds = %9
  %14 = ashr i32 %5, 1
  %15 = icmp sgt i32 %2, 0
  %16 = icmp sgt i32 %1, 0
  %or.cond = and i1 %16, %15
  br i1 %or.cond, label %17, label %53

17:                                               ; preds = %13
  %18 = getelementptr inbounds nuw i8, ptr %0, i64 176
  %19 = load ptr, ptr %18, align 8, !tbaa !20
  %.not.i.i = icmp eq ptr %19, null
  br i1 %.not.i.i, label %._crit_edge, label %21

._crit_edge:                                      ; preds = %17
  %.pre = load i32, ptr inttoptr (i64 8 to ptr), align 8, !tbaa !9
  %20 = add i32 %.pre, -1
  br label %24

21:                                               ; preds = %17
  %22 = getelementptr inbounds nuw i8, ptr %19, i64 8
  %23 = load i32, ptr %22, align 8, !tbaa !9
  br label %24

24:                                               ; preds = %._crit_edge, %21
  %25 = phi i32 [ %20, %._crit_edge ], [ %23, %21 ]
  %26 = getelementptr i8, ptr %19, i64 16
  %.val.val = load ptr, ptr %26, align 8, !tbaa !39
  %27 = add nsw i32 %2, -1
  %28 = mul nsw i32 %27, %3
  %29 = add nsw i32 %28, %1
  %30 = sext i32 %29 to i64
  %31 = getelementptr inbounds nuw %"struct.zxing::BINARIZER_BLOCK", ptr %.val.val, i64 %30, i32 3
  %32 = load i32, ptr %31, align 4, !tbaa !46
  %33 = mul nsw i32 %3, %2
  %34 = add nsw i32 %33, %1
  %35 = sext i32 %34 to i64
  %36 = getelementptr %"struct.zxing::BINARIZER_BLOCK", ptr %.val.val, i64 %35
  %37 = getelementptr i8, ptr %36, i64 -4
  %38 = load i32, ptr %37, align 4, !tbaa !46
  %39 = shl nsw i32 %38, 1
  %40 = add nsw i32 %39, %32
  %41 = getelementptr %"struct.zxing::BINARIZER_BLOCK", ptr %.val.val, i64 %30
  %42 = getelementptr i8, ptr %41, i64 -4
  %43 = load i32, ptr %42, align 4, !tbaa !46
  %44 = add nsw i32 %40, %43
  %45 = ashr i32 %44, 2
  %46 = getelementptr inbounds nuw i8, ptr %19, i64 8
  store i32 %25, ptr %46, align 8, !tbaa !9
  %47 = icmp eq i32 %25, 0
  br i1 %47, label %48, label %_ZN5zxing8ArrayRefINS_15BINARIZER_BLOCKEED2Ev.exit

48:                                               ; preds = %24
  store i32 -559026175, ptr %46, align 8, !tbaa !9
  %49 = load ptr, ptr %19, align 8, !tbaa !12
  %50 = getelementptr inbounds nuw i8, ptr %49, i64 8
  %51 = load ptr, ptr %50, align 8
  tail call void %51(ptr noundef nonnull align 8 dereferenceable(12) %19) #10
  br label %_ZN5zxing8ArrayRefINS_15BINARIZER_BLOCKEED2Ev.exit

_ZN5zxing8ArrayRefINS_15BINARIZER_BLOCKEED2Ev.exit: ; preds = %24, %48
  %52 = icmp slt i32 %5, %45
  %spec.select = select i1 %52, i32 %45, i32 %14
  br label %53

53:                                               ; preds = %13, %_ZN5zxing8ArrayRefINS_15BINARIZER_BLOCKEED2Ev.exit, %9
  %.0 = phi i32 [ %spec.select, %_ZN5zxing8ArrayRefINS_15BINARIZER_BLOCKEED2Ev.exit ], [ %14, %13 ], [ %11, %9 ]
  ret i32 %.0
}